; Function Attrs: mustprogress nofree norecurse nosync nounwind willreturn memory(argmem: read) uwtable
define internal { ptr, ptr } @_ZN3gmx8internal14EnumIndexStoreINS_15analysismodules12_GLOBAL__N_117SingleDimDiffTypeEE6valuesEv(ptr nocapture noundef nonnull readonly align 8 dereferenceable(48) %0) unnamed_addr #13 align 2 {
  %2 = getelementptr inbounds i8, ptr %0, i64 8
  %3 = load ptr, ptr %2, align 8
  %4 = getelementptr inbounds i8, ptr %0, i64 16
  %5 = load ptr, ptr %4, align 8
  %6 = ptrtoint ptr %5 to i64
  %7 = ptrtoint ptr %3 to i64
  %8 = sub i64 %6, %7
  %9 = getelementptr inbounds i8, ptr %3, i64 %8
  %.fca.0.insert = insertvalue { ptr, ptr } poison, ptr %3, 0
  %.fca.1.insert = insertvalue { ptr, ptr } %.fca.0.insert, ptr %9, 1
  ret { ptr, ptr } %.fca.1.insert
}